target datalayout = "e-m:e-p270:32:32-p271:32:32-p272:64:64-i64:64-i128:128-f80:128-n8:16:32:64-S128"
target triple = "x86_64-pc-linux-gnu"

%struct.lstopo_output = type { ptr, i32, i32, i32, ptr, i32, i32, i32, i32, i32, i32, i32, i32, ptr, ptr, i32, i32, i64, i64, i64, i32, [3 x [128 x i8]], i32, i32, ptr, i32, i32, i32, i32, i32, i32, %struct.hwloc_calc_level, i32, i32, i32, i64, [256 x i8], i32, i32, i32, i32, i32, float, [20 x i32], i32, i32, i32, [20 x i32], i32, [20 x i32], i32, [20 x i32], i32, i32, i32, i32, ptr, ptr, i32, [20 x i32], [20 x i32], [20 x i32], ptr, ptr, i64, ptr, i32, i32, i32 }
%struct.hwloc_calc_level = type { i32, i32, %union.hwloc_obj_attr_u, [32 x i8], i32, i32, i32, i32 }
%union.hwloc_obj_attr_u = type { %struct.hwloc_numanode_attr_s, [24 x i8] }
%struct.hwloc_numanode_attr_s = type { i64, i32, ptr }
%struct.lstopo_color = type { i32, i32, i32, i32, %union.lstopo_color_private_u, ptr }
%union.lstopo_color_private_u = type { %struct.lstopo_color_private_ascii_s }
%struct.lstopo_color_private_ascii_s = type { i32 }
%struct.hwloc_obj = type { i32, ptr, i32, ptr, i64, ptr, i32, i32, ptr, ptr, ptr, i32, ptr, ptr, i32, ptr, ptr, ptr, i32, i32, ptr, i32, ptr, i32, ptr, ptr, ptr, ptr, ptr, %struct.hwloc_infos_s, ptr, i64 }
%struct.hwloc_infos_s = type { ptr, i32, i32 }
%struct.lstopo_obj_userdata = type { %struct.hwloc_utils_userdata, i32, i32, %struct.lstopo_style, i32, i32, i32, i32, %struct.lstopo_children_position, %struct.lstopo_children_position, %struct.lstopo_children_position, %struct.lstopo_children_position, i32, i32, i32, [4 x %struct.lstopo_text_line], i32, i32 }
%struct.hwloc_utils_userdata = type { ptr, i64, ptr, ptr }
%struct.lstopo_style = type { ptr, ptr, ptr }
%struct.lstopo_children_position = type { i32, i32, i32, i32, i32, i32, ptr }
%struct.lstopo_text_line = type { [128 x i8], i32, i32 }

@.str.4 = private unnamed_addr constant [4 x i8] c"_%u\00", align 1
@.str.5 = private unnamed_addr constant [19 x i8] c" id='%s_%u_rect%s'\00", align 1
@.str.6 = private unnamed_addr constant [12 x i8] c" class='%s'\00", align 1
@.str.7 = private unnamed_addr constant [18 x i8] c" id='anon_rect%s'\00", align 1
@.str.8 = private unnamed_addr constant [23 x i8] c" stroke-dasharray=\22%u\22\00", align 1
@.str.9 = private unnamed_addr constant [112 x i8] c"\09<rect%s%s x='%u' y='%u' width='%u' height='%u' fill='rgb(%d,%d,%d)' stroke='rgb(0,0,0)' stroke-width='%u'%s/>\0A\00", align 1

; Function Attrs: inlinehint nounwind uwtable
define internal i32 @lstopo_obj_cpukind_style(ptr noundef %0, ptr noundef %1) #5 {
  %3 = alloca i32, align 4
  %4 = alloca ptr, align 8
  %5 = alloca ptr, align 8
  %6 = alloca ptr, align 8
  store ptr %0, ptr %4, align 8, !tbaa !4
  store ptr %1, ptr %5, align 8, !tbaa !33
  %7 = load ptr, ptr %4, align 8, !tbaa !4
  %8 = getelementptr inbounds nuw %struct.lstopo_output, ptr %7, i32 0, i32 55
  %9 = load i32, ptr %8, align 8, !tbaa !48
  %10 = icmp ne i32 %9, 0
  br i1 %10, label %11, label %27

11:                                               ; preds = %2
  %12 = load ptr, ptr %5, align 8, !tbaa !33
  %13 = icmp ne ptr %12, null
  br i1 %13, label %14, label %26

14:                                               ; preds = %11
  %15 = load ptr, ptr %5, align 8, !tbaa !33
  %16 = getelementptr inbounds nuw %struct.hwloc_obj, ptr %15, i32 0, i32 30
  %17 = load ptr, ptr %16, align 8, !tbaa !49
  %18 = icmp ne ptr %17, null
  br i1 %18, label %19, label %26

19:                                               ; preds = %14
  call void @llvm.lifetime.start.p0(i64 8, ptr %6) #7
  %20 = load ptr, ptr %5, align 8, !tbaa !33
  %21 = getelementptr inbounds nuw %struct.hwloc_obj, ptr %20, i32 0, i32 30
  %22 = load ptr, ptr %21, align 8, !tbaa !49
  store ptr %22, ptr %6, align 8, !tbaa !50
  %23 = load ptr, ptr %6, align 8, !tbaa !50
  %24 = getelementptr inbounds nuw %struct.lstopo_obj_userdata, ptr %23, i32 0, i32 5
  %25 = load i32, ptr %24, align 4, !tbaa !52
  store i32 %25, ptr %3, align 4
  call void @llvm.lifetime.end.p0(i64 8, ptr %6) #7
  br label %28

26:                                               ; preds = %14, %11
  br label %27

27:                                               ; preds = %26, %2
  store i32 0, ptr %3, align 4
  br label %28

28:                                               ; preds = %27, %19
  %29 = load i32, ptr %3, align 4
  ret i32 %29
}

; Function Attrs: nounwind uwtable
define internal void @native_svg_box(ptr noundef %0, ptr noundef %1, i32 noundef %2, i32 noundef %3, i32 noundef %4, i32 noundef %5, i32 noundef %6, ptr noundef %7, i32 noundef %8) #0 {
  %10 = alloca ptr, align 8
  %11 = alloca ptr, align 8
  %12 = alloca i32, align 4
  %13 = alloca i32, align 4
  %14 = alloca i32, align 4
  %15 = alloca i32, align 4
  %16 = alloca i32, align 4
  %17 = alloca ptr, align 8
  %18 = alloca i32, align 4
  %19 = alloca ptr, align 8
  %20 = alloca i32, align 4
  %21 = alloca i32, align 4
  %22 = alloca i32, align 4
  %23 = alloca i32, align 4
  %24 = alloca i32, align 4
  %25 = alloca [128 x i8], align 16
  %26 = alloca [128 x i8], align 16
  %27 = alloca [12 x i8], align 1
  %28 = alloca [32 x i8], align 16
  %29 = alloca [64 x i8], align 16
  store ptr %0, ptr %10, align 8, !tbaa !4
  store ptr %1, ptr %11, align 8, !tbaa !31
  store i32 %2, ptr %12, align 4, !tbaa !24
  store i32 %3, ptr %13, align 4, !tbaa !24
  store i32 %4, ptr %14, align 4, !tbaa !24
  store i32 %5, ptr %15, align 4, !tbaa !24
  store i32 %6, ptr %16, align 4, !tbaa !24
  store ptr %7, ptr %17, align 8, !tbaa !33
  store i32 %8, ptr %18, align 4, !tbaa !24
  call void @llvm.lifetime.start.p0(i64 8, ptr %19) #7
  %30 = load ptr, ptr %10, align 8, !tbaa !4
  %31 = getelementptr inbounds nuw %struct.lstopo_output, ptr %30, i32 0, i32 4
  %32 = load ptr, ptr %31, align 8, !tbaa !25
  store ptr %32, ptr %19, align 8, !tbaa !23
  call void @llvm.lifetime.start.p0(i64 4, ptr %20) #7
  %33 = load ptr, ptr %10, align 8, !tbaa !4
  %34 = load ptr, ptr %17, align 8, !tbaa !33
  %35 = call i32 @lstopo_obj_cpukind_style(ptr noundef %33, ptr noundef %34)
  store i32 %35, ptr %20, align 4, !tbaa !24
  call void @llvm.lifetime.start.p0(i64 4, ptr %21) #7
  %36 = load ptr, ptr %10, align 8, !tbaa !4
  %37 = getelementptr inbounds nuw %struct.lstopo_output, ptr %36, i32 0, i32 41
  %38 = load i32, ptr %37, align 8, !tbaa !35
  store i32 %38, ptr %21, align 4, !tbaa !24
  call void @llvm.lifetime.start.p0(i64 4, ptr %22) #7
  %39 = load ptr, ptr %11, align 8, !tbaa !31
  %40 = getelementptr inbounds nuw %struct.lstopo_color, ptr %39, i32 0, i32 0
  %41 = load i32, ptr %40, align 8, !tbaa !36
  store i32 %41, ptr %22, align 4, !tbaa !24
  call void @llvm.lifetime.start.p0(i64 4, ptr %23) #7
  %42 = load ptr, ptr %11, align 8, !tbaa !31
  %43 = getelementptr inbounds nuw %struct.lstopo_color, ptr %42, i32 0, i32 1
  %44 = load i32, ptr %43, align 4, !tbaa !38
  store i32 %44, ptr %23, align 4, !tbaa !24
  call void @llvm.lifetime.start.p0(i64 4, ptr %24) #7
  %45 = load ptr, ptr %11, align 8, !tbaa !31
  %46 = getelementptr inbounds nuw %struct.lstopo_color, ptr %45, i32 0, i32 2
  %47 = load i32, ptr %46, align 8, !tbaa !39
  store i32 %47, ptr %24, align 4, !tbaa !24
  call void @llvm.lifetime.start.p0(i64 128, ptr %25) #7
  call void @llvm.memset.p0.i64(ptr align 16 %25, i8 0, i64 128, i1 false)
  call void @llvm.lifetime.start.p0(i64 128, ptr %26) #7
  call void @llvm.memset.p0.i64(ptr align 16 %26, i8 0, i64 128, i1 false)
  call void @llvm.lifetime.start.p0(i64 12, ptr %27) #7
  call void @llvm.memset.p0.i64(ptr align 1 %27, i8 0, i64 12, i1 false)
  call void @llvm.lifetime.start.p0(i64 32, ptr %28) #7
  call void @llvm.memset.p0.i64(ptr align 16 %28, i8 0, i64 32, i1 false)
  %48 = load i32, ptr %18, align 4, !tbaa !24
  %49 = icmp ne i32 %48, 0
  br i1 %49, label %50, label %54

50:                                               ; preds = %9
  %51 = getelementptr inbounds [12 x i8], ptr %27, i64 0, i64 0
  %52 = load i32, ptr %18, align 4, !tbaa !24
  %53 = call i32 (ptr, i64, ptr, ...) @snprintf(ptr noundef %51, i64 noundef 12, ptr noundef @.str.4, i32 noundef %52) #7
  br label %54

54:                                               ; preds = %50, %9
  %55 = load ptr, ptr %17, align 8, !tbaa !33
  %56 = icmp ne ptr %55, null
  br i1 %56, label %57, label %71

57:                                               ; preds = %54
  call void @llvm.lifetime.start.p0(i64 64, ptr %29) #7
  %58 = getelementptr inbounds [64 x i8], ptr %29, i64 0, i64 0
  %59 = load ptr, ptr %17, align 8, !tbaa !33
  %60 = call i32 @hwloc_obj_type_snprintf(ptr noundef %58, i64 noundef 64, ptr noundef %59, i64 noundef 0)
  %61 = getelementptr inbounds [128 x i8], ptr %25, i64 0, i64 0
  %62 = getelementptr inbounds [64 x i8], ptr %29, i64 0, i64 0
  %63 = load ptr, ptr %17, align 8, !tbaa !33
  %64 = getelementptr inbounds nuw %struct.hwloc_obj, ptr %63, i32 0, i32 7
  %65 = load i32, ptr %64, align 4, !tbaa !40
  %66 = getelementptr inbounds [12 x i8], ptr %27, i64 0, i64 0
  %67 = call i32 (ptr, i64, ptr, ...) @snprintf(ptr noundef %61, i64 noundef 128, ptr noundef @.str.5, ptr noundef %62, i32 noundef %65, ptr noundef %66) #7
  %68 = getelementptr inbounds [128 x i8], ptr %26, i64 0, i64 0
  %69 = getelementptr inbounds [64 x i8], ptr %29, i64 0, i64 0
  %70 = call i32 (ptr, i64, ptr, ...) @snprintf(ptr noundef %68, i64 noundef 128, ptr noundef @.str.6, ptr noundef %69) #7
  call void @llvm.lifetime.end.p0(i64 64, ptr %29) #7
  br label %75

71:                                               ; preds = %54
  %72 = getelementptr inbounds [128 x i8], ptr %25, i64 0, i64 0
  %73 = getelementptr inbounds [12 x i8], ptr %27, i64 0, i64 0
  %74 = call i32 (ptr, i64, ptr, ...) @snprintf(ptr noundef %72, i64 noundef 128, ptr noundef @.str.7, ptr noundef %73) #7
  br label %75

75:                                               ; preds = %71, %57
  %76 = load i32, ptr %20, align 4, !tbaa !24
  %77 = icmp ne i32 %76, 0
  br i1 %77, label %78, label %86

78:                                               ; preds = %75
  %79 = getelementptr inbounds [32 x i8], ptr %28, i64 0, i64 0
  %80 = load i32, ptr %20, align 4, !tbaa !24
  %81 = shl i32 1, %80
  %82 = call i32 (ptr, i64, ptr, ...) @snprintf(ptr noundef %79, i64 noundef 32, ptr noundef @.str.8, i32 noundef %81) #7
  %83 = load i32, ptr %20, align 4, !tbaa !24
  %84 = load i32, ptr %21, align 4, !tbaa !24
  %85 = mul i32 %84, %83
  store i32 %85, ptr %21, align 4, !tbaa !24
  br label %86

86:                                               ; preds = %78, %75
  %87 = load ptr, ptr %19, align 8, !tbaa !23
  %88 = getelementptr inbounds [128 x i8], ptr %25, i64 0, i64 0
  %89 = getelementptr inbounds [128 x i8], ptr %26, i64 0, i64 0
  %90 = load i32, ptr %13, align 4, !tbaa !24
  %91 = load i32, ptr %15, align 4, !tbaa !24
  %92 = load i32, ptr %14, align 4, !tbaa !24
  %93 = load i32, ptr %16, align 4, !tbaa !24
  %94 = load i32, ptr %22, align 4, !tbaa !24
  %95 = load i32, ptr %23, align 4, !tbaa !24
  %96 = load i32, ptr %24, align 4, !tbaa !24
  %97 = load i32, ptr %21, align 4, !tbaa !24
  %98 = getelementptr inbounds [32 x i8], ptr %28, i64 0, i64 0
  %99 = call i32 (ptr, ptr, ...) @fprintf(ptr noundef %87, ptr noundef @.str.9, ptr noundef %88, ptr noundef %89, i32 noundef %90, i32 noundef %91, i32 noundef %92, i32 noundef %93, i32 noundef %94, i32 noundef %95, i32 noundef %96, i32 noundef %97, ptr noundef %98) #7
  call void @llvm.lifetime.end.p0(i64 32, ptr %28) #7
  call void @llvm.lifetime.end.p0(i64 12, ptr %27) #7
  call void @llvm.lifetime.end.p0(i64 128, ptr %26) #7
  call void @llvm.lifetime.end.p0(i64 128, ptr %25) #7
  call void @llvm.lifetime.end.p0(i64 4, ptr %24) #7
  call void @llvm.lifetime.end.p0(i64 4, ptr %23) #7
  call void @llvm.lifetime.end.p0(i64 4, ptr %22) #7
  call void @llvm.lifetime.end.p0(i64 4, ptr %21) #7
  call void @llvm.lifetime.end.p0(i64 4, ptr %20) #7
  call void @llvm.lifetime.end.p0(i64 8, ptr %19) #7
  ret void
}