; Function Attrs: nounwind uwtable
define internal void @native_svg_box(ptr noundef readonly captures(none) %0, ptr noundef readonly captures(none) %1, i32 %2, i32 noundef %3, i32 noundef %4, i32 noundef %5, i32 noundef %6, ptr noundef %7, i32 noundef %8) #0 {
  %10 = alloca [128 x i8], align 16
  %11 = alloca [128 x i8], align 16
  %12 = alloca [12 x i8], align 1
  %13 = alloca [32 x i8], align 16
  %14 = alloca [64 x i8], align 16
  %15 = getelementptr inbounds nuw i8, ptr %0, i64 24
  %16 = load ptr, ptr %15, align 8, !tbaa !22
  %17 = getelementptr i8, ptr %0, i64 1304
  %.val = load i32, ptr %17, align 8, !tbaa !28
  %18 = icmp ne i32 %.val, 0
  %19 = icmp ne ptr %7, null
  %or.cond.i = and i1 %19, %18
  br i1 %or.cond.i, label %20, label %lstopo_obj_cpukind_style.exit

20:                                               ; preds = %9
  %21 = getelementptr inbounds nuw i8, ptr %7, i64 232
  %22 = load ptr, ptr %21, align 8, !tbaa !29
  %.not.i = icmp eq ptr %22, null
  br i1 %.not.i, label %lstopo_obj_cpukind_style.exit, label %23

23:                                               ; preds = %20
  %24 = getelementptr inbounds nuw i8, ptr %22, i64 68
  %25 = load i32, ptr %24, align 4, !tbaa !36
  br label %lstopo_obj_cpukind_style.exit

lstopo_obj_cpukind_style.exit:                    ; preds = %9, %20, %23
  %.0.i = phi i32 [ %25, %23 ], [ 0, %20 ], [ 0, %9 ]
  %26 = getelementptr inbounds nuw i8, ptr %0, i64 944
  %27 = load i32, ptr %26, align 8, !tbaa !43
  %28 = load i32, ptr %1, align 8, !tbaa !44
  %29 = getelementptr inbounds nuw i8, ptr %1, i64 4
  %30 = load i32, ptr %29, align 4, !tbaa !46
  %31 = getelementptr inbounds nuw i8, ptr %1, i64 8
  %32 = load i32, ptr %31, align 8, !tbaa !47
  call void @llvm.lifetime.start.p0(i64 128, ptr nonnull %10) #9
  call void @llvm.memset.p0.i64(ptr noundef nonnull align 16 dereferenceable(128) %10, i8 0, i64 128, i1 false)
  call void @llvm.lifetime.start.p0(i64 128, ptr nonnull %11) #9
  call void @llvm.memset.p0.i64(ptr noundef nonnull align 16 dereferenceable(128) %11, i8 0, i64 128, i1 false)
  call void @llvm.lifetime.start.p0(i64 12, ptr nonnull %12) #9
  call void @llvm.memset.p0.i64(ptr noundef nonnull align 1 dereferenceable(12) %12, i8 0, i64 12, i1 false)
  call void @llvm.lifetime.start.p0(i64 32, ptr nonnull %13) #9
  call void @llvm.memset.p0.i64(ptr noundef nonnull align 16 dereferenceable(32) %13, i8 0, i64 32, i1 false)
  %.not = icmp eq i32 %8, 0
  br i1 %.not, label %35, label %33

33:                                               ; preds = %lstopo_obj_cpukind_style.exit
  %34 = call i32 (ptr, i64, ptr, ...) @snprintf(ptr noundef nonnull dereferenceable(1) %12, i64 noundef 12, ptr noundef nonnull @.str.4, i32 noundef %8) #9
  br label %35

35:                                               ; preds = %33, %lstopo_obj_cpukind_style.exit
  %.not27 = icmp eq ptr %7, null
  br i1 %.not27, label %42, label %36

36:                                               ; preds = %35
  call void @llvm.lifetime.start.p0(i64 64, ptr nonnull %14) #9
  %37 = call i32 @hwloc_obj_type_snprintf(ptr noundef nonnull %14, i64 noundef 64, ptr noundef nonnull %7, i64 noundef 0) #9
  %38 = getelementptr inbounds nuw i8, ptr %7, i64 52
  %39 = load i32, ptr %38, align 4, !tbaa !48
  %40 = call i32 (ptr, i64, ptr, ...) @snprintf(ptr noundef nonnull dereferenceable(1) %10, i64 noundef 128, ptr noundef nonnull @.str.5, ptr noundef nonnull %14, i32 noundef %39, ptr noundef nonnull %12) #9
  %41 = call i32 (ptr, i64, ptr, ...) @snprintf(ptr noundef nonnull dereferenceable(1) %11, i64 noundef 128, ptr noundef nonnull @.str.6, ptr noundef nonnull %14) #9
  call void @llvm.lifetime.end.p0(i64 64, ptr nonnull %14) #9
  br label %44

42:                                               ; preds = %35
  %43 = call i32 (ptr, i64, ptr, ...) @snprintf(ptr noundef nonnull dereferenceable(1) %10, i64 noundef 128, ptr noundef nonnull @.str.7, ptr noundef nonnull %12) #9
  br label %44

44:                                               ; preds = %42, %36
  %.not28 = icmp eq i32 %.0.i, 0
  br i1 %.not28, label %49, label %45

45:                                               ; preds = %44
  %46 = shl nuw i32 1, %.0.i
  %47 = call i32 (ptr, i64, ptr, ...) @snprintf(ptr noundef nonnull dereferenceable(1) %13, i64 noundef 32, ptr noundef nonnull @.str.8, i32 noundef %46) #9
  %48 = mul i32 %27, %.0.i
  br label %49

49:                                               ; preds = %45, %44
  %.0 = phi i32 [ %48, %45 ], [ %27, %44 ]
  %50 = call i32 (ptr, ptr, ...) @fprintf(ptr noundef %16, ptr noundef nonnull @.str.9, ptr noundef nonnull %10, ptr noundef nonnull %11, i32 noundef %3, i32 noundef %5, i32 noundef %4, i32 noundef %6, i32 noundef %28, i32 noundef %30, i32 noundef %32, i32 noundef %.0, ptr noundef nonnull %13) #9
  call void @llvm.lifetime.end.p0(i64 32, ptr nonnull %13) #9
  call void @llvm.lifetime.end.p0(i64 12, ptr nonnull %12) #9
  call void @llvm.lifetime.end.p0(i64 128, ptr nonnull %11) #9
  call void @llvm.lifetime.end.p0(i64 128, ptr nonnull %10) #9
  ret void
}